target datalayout = "e-m:e-p270:32:32-p271:32:32-p272:64:64-i64:64-i128:128-f80:128-n8:16:32:64-S128"
target triple = "x86_64-pc-linux-gnu"

%struct.mbedtls_ssl_tls13_handshake_secrets = type { [64 x i8], [64 x i8] }
%struct.mbedtls_ssl_context = type { ptr, i32, i32, i32, i32, i32, ptr, ptr, ptr, ptr, ptr, ptr, ptr, ptr, ptr, ptr, ptr, ptr, ptr, ptr, ptr, ptr, ptr, ptr, ptr, ptr, ptr, ptr, ptr, ptr, ptr, ptr, ptr, i32, i64, i64, i16, i64, i64, i64, i64, i32, i32, i8, i8, i32, i8, ptr, ptr, ptr, ptr, ptr, ptr, ptr, i32, i64, i64, [8 x i8], i16, ptr, ptr, ptr, i64, i32, i64, [12 x i8], [12 x i8], [32 x i8], i8, i8, ptr, ptr, %union.mbedtls_ssl_user_data_t }
%union.mbedtls_ssl_user_data_t = type { i64 }
%struct.mbedtls_ssl_handshake_params = type { i8, i8, i8, i8, i8, i32, i8, i8, i8, i8, ptr, ptr, ptr, ptr, ptr, i8, i8, i8, i8, i16, i16, [20 x i16], ptr, ptr, %struct.mbedtls_dhm_context, %struct.mbedtls_ecdh_context, i16, i64, i32, i8, [1024 x i8], i64, ptr, ptr, i64, i16, ptr, ptr, ptr, ptr, %struct.anon, ptr, i16, i8, i32, i32, i32, ptr, ptr, ptr, i32, ptr, [8 x i8], i8, [32 x i8], i8, i16, %struct.mbedtls_md_context_t, %struct.mbedtls_md_context_t, i16, i8, %union.anon.3, [64 x i8], [1076 x i8], i64, i32, i32, i8, ptr, ptr, %union.anon.6, %struct.mbedtls_ssl_tls13_handshake_secrets, ptr, i64, ptr }
%struct.mbedtls_dhm_context = type { %struct.mbedtls_mpi, %struct.mbedtls_mpi, %struct.mbedtls_mpi, %struct.mbedtls_mpi, %struct.mbedtls_mpi, %struct.mbedtls_mpi, %struct.mbedtls_mpi, %struct.mbedtls_mpi, %struct.mbedtls_mpi, %struct.mbedtls_mpi }
%struct.mbedtls_mpi = type { ptr, i16, i16 }
%struct.mbedtls_ecdh_context = type { i8, i32, i32, %union.anon.1 }
%union.anon.1 = type { %struct.mbedtls_ecdh_context_mbed }
%struct.mbedtls_ecdh_context_mbed = type { %struct.mbedtls_ecp_group, %struct.mbedtls_mpi, %struct.mbedtls_ecp_point, %struct.mbedtls_ecp_point, %struct.mbedtls_mpi }
%struct.mbedtls_ecp_group = type { i32, %struct.mbedtls_mpi, %struct.mbedtls_mpi, %struct.mbedtls_mpi, %struct.mbedtls_ecp_point, %struct.mbedtls_mpi, i64, i64, i32, ptr, ptr, ptr, ptr, ptr, i64 }
%struct.mbedtls_ecp_point = type { %struct.mbedtls_mpi, %struct.mbedtls_mpi, %struct.mbedtls_mpi }
%struct.anon = type { i64, i8, [4 x %struct.mbedtls_ssl_hs_buffer], %struct.anon.2 }
%struct.mbedtls_ssl_hs_buffer = type { i8, ptr, i64 }
%struct.anon.2 = type { ptr, i64, i32 }
%struct.mbedtls_md_context_t = type { ptr, ptr, ptr }
%union.anon.3 = type { %struct.anon.4 }
%struct.anon.4 = type { i8, [64 x i8], i64 }
%union.anon.6 = type { [64 x i8] }
%struct.mbedtls_ssl_ciphersuite_t = type { i32, ptr, i8, i8, i8, i8, i16, i16 }

@.str = private unnamed_addr constant [128 x i8] c"generated/home/dtcxzyw/WorkSpace/Projects/compilers/llvm-opt-benchmark/bench/lief/bench_build/mbed_src/library/ssl_tls13_keys.c\00", align 1
@.str.1 = private unnamed_addr constant [43 x i8] c"=> mbedtls_ssl_tls13_calculate_verify_data\00", align 1
@.str.2 = private unnamed_addr constant [37 x i8] c"mbedtls_ssl_get_handshake_transcript\00", align 1
@.str.3 = private unnamed_addr constant [15 x i8] c"handshake hash\00", align 1
@.str.4 = private unnamed_addr constant [33 x i8] c"verify_data for finished message\00", align 1
@.str.5 = private unnamed_addr constant [43 x i8] c"<= mbedtls_ssl_tls13_calculate_verify_data\00", align 1

; Function Attrs: inlinehint nounwind uwtable
define internal i32 @mbedtls_md_psa_alg_from_type(i32 noundef %0) #5 {
  %2 = alloca i32, align 4
  store i32 %0, ptr %2, align 4, !tbaa !3
  %3 = load i32, ptr %2, align 4, !tbaa !3
  %4 = or i32 33554432, %3
  ret i32 %4
}

; Function Attrs: nounwind uwtable
define hidden i32 @mbedtls_ssl_tls13_calculate_verify_data(ptr noundef %0, ptr noundef %1, i64 noundef %2, ptr noundef %3, i32 noundef %4) #0 {
  %6 = alloca ptr, align 8
  %7 = alloca ptr, align 8
  %8 = alloca i64, align 8
  %9 = alloca ptr, align 8
  %10 = alloca i32, align 4
  %11 = alloca i32, align 4
  %12 = alloca [64 x i8], align 16
  %13 = alloca i64, align 8
  %14 = alloca ptr, align 8
  %15 = alloca i64, align 8
  %16 = alloca ptr, align 8
  %17 = alloca i32, align 4
  %18 = alloca i32, align 4
  %19 = alloca i64, align 8
  store ptr %0, ptr %6, align 8, !tbaa !21
  store ptr %1, ptr %7, align 8, !tbaa !7
  store i64 %2, ptr %8, align 8, !tbaa !10
  store ptr %3, ptr %9, align 8, !tbaa !12
  store i32 %4, ptr %10, align 4, !tbaa !3
  call void @llvm.lifetime.start.p0(i64 4, ptr %11) #8
  store i32 -110, ptr %11, align 4, !tbaa !3
  call void @llvm.lifetime.start.p0(i64 64, ptr %12) #8
  call void @llvm.lifetime.start.p0(i64 8, ptr %13) #8
  call void @llvm.lifetime.start.p0(i64 8, ptr %14) #8
  store ptr null, ptr %14, align 8, !tbaa !7
  call void @llvm.lifetime.start.p0(i64 8, ptr %15) #8
  store i64 0, ptr %15, align 8, !tbaa !10
  call void @llvm.lifetime.start.p0(i64 8, ptr %16) #8
  %20 = load ptr, ptr %6, align 8, !tbaa !21
  %21 = getelementptr inbounds nuw %struct.mbedtls_ssl_context, ptr %20, i32 0, i32 16
  %22 = load ptr, ptr %21, align 8, !tbaa !23
  %23 = getelementptr inbounds nuw %struct.mbedtls_ssl_handshake_params, ptr %22, i32 0, i32 71
  store ptr %23, ptr %16, align 8, !tbaa !20
  call void @llvm.lifetime.start.p0(i64 4, ptr %17) #8
  %24 = load ptr, ptr %6, align 8, !tbaa !21
  %25 = getelementptr inbounds nuw %struct.mbedtls_ssl_context, ptr %24, i32 0, i32 16
  %26 = load ptr, ptr %25, align 8, !tbaa !23
  %27 = getelementptr inbounds nuw %struct.mbedtls_ssl_handshake_params, ptr %26, i32 0, i32 10
  %28 = load ptr, ptr %27, align 8, !tbaa !30
  %29 = getelementptr inbounds nuw %struct.mbedtls_ssl_ciphersuite_t, ptr %28, i32 0, i32 3
  %30 = load i8, ptr %29, align 1, !tbaa !46
  %31 = zext i8 %30 to i32
  store i32 %31, ptr %17, align 4, !tbaa !3
  call void @llvm.lifetime.start.p0(i64 4, ptr %18) #8
  %32 = load ptr, ptr %6, align 8, !tbaa !21
  %33 = getelementptr inbounds nuw %struct.mbedtls_ssl_context, ptr %32, i32 0, i32 16
  %34 = load ptr, ptr %33, align 8, !tbaa !23
  %35 = getelementptr inbounds nuw %struct.mbedtls_ssl_handshake_params, ptr %34, i32 0, i32 10
  %36 = load ptr, ptr %35, align 8, !tbaa !30
  %37 = getelementptr inbounds nuw %struct.mbedtls_ssl_ciphersuite_t, ptr %36, i32 0, i32 3
  %38 = load i8, ptr %37, align 1, !tbaa !46
  %39 = zext i8 %38 to i32
  %40 = call i32 @mbedtls_md_psa_alg_from_type(i32 noundef %39)
  store i32 %40, ptr %18, align 4, !tbaa !3
  call void @llvm.lifetime.start.p0(i64 8, ptr %19) #8
  %41 = load i32, ptr %18, align 4, !tbaa !3
  %42 = and i32 %41, 255
  %43 = or i32 33554432, %42
  %44 = icmp eq i32 %43, 33554435
  br i1 %44, label %45, label %46

45:                                               ; preds = %5
  br label %140

46:                                               ; preds = %5
  %47 = load i32, ptr %18, align 4, !tbaa !3
  %48 = and i32 %47, 255
  %49 = or i32 33554432, %48
  %50 = icmp eq i32 %49, 33554436
  br i1 %50, label %51, label %52

51:                                               ; preds = %46
  br label %138

52:                                               ; preds = %46
  %53 = load i32, ptr %18, align 4, !tbaa !3
  %54 = and i32 %53, 255
  %55 = or i32 33554432, %54
  %56 = icmp eq i32 %55, 33554437
  br i1 %56, label %57, label %58

57:                                               ; preds = %52
  br label %136

58:                                               ; preds = %52
  %59 = load i32, ptr %18, align 4, !tbaa !3
  %60 = and i32 %59, 255
  %61 = or i32 33554432, %60
  %62 = icmp eq i32 %61, 33554440
  br i1 %62, label %63, label %64

63:                                               ; preds = %58
  br label %134

64:                                               ; preds = %58
  %65 = load i32, ptr %18, align 4, !tbaa !3
  %66 = and i32 %65, 255
  %67 = or i32 33554432, %66
  %68 = icmp eq i32 %67, 33554441
  br i1 %68, label %69, label %70

69:                                               ; preds = %64
  br label %132

70:                                               ; preds = %64
  %71 = load i32, ptr %18, align 4, !tbaa !3
  %72 = and i32 %71, 255
  %73 = or i32 33554432, %72
  %74 = icmp eq i32 %73, 33554442
  br i1 %74, label %75, label %76

75:                                               ; preds = %70
  br label %130

76:                                               ; preds = %70
  %77 = load i32, ptr %18, align 4, !tbaa !3
  %78 = and i32 %77, 255
  %79 = or i32 33554432, %78
  %80 = icmp eq i32 %79, 33554443
  br i1 %80, label %81, label %82

81:                                               ; preds = %76
  br label %128

82:                                               ; preds = %76
  %83 = load i32, ptr %18, align 4, !tbaa !3
  %84 = and i32 %83, 255
  %85 = or i32 33554432, %84
  %86 = icmp eq i32 %85, 33554444
  br i1 %86, label %87, label %88

87:                                               ; preds = %82
  br label %126

88:                                               ; preds = %82
  %89 = load i32, ptr %18, align 4, !tbaa !3
  %90 = and i32 %89, 255
  %91 = or i32 33554432, %90
  %92 = icmp eq i32 %91, 33554445
  br i1 %92, label %93, label %94

93:                                               ; preds = %88
  br label %124

94:                                               ; preds = %88
  %95 = load i32, ptr %18, align 4, !tbaa !3
  %96 = and i32 %95, 255
  %97 = or i32 33554432, %96
  %98 = icmp eq i32 %97, 33554448
  br i1 %98, label %99, label %100

99:                                               ; preds = %94
  br label %122

100:                                              ; preds = %94
  %101 = load i32, ptr %18, align 4, !tbaa !3
  %102 = and i32 %101, 255
  %103 = or i32 33554432, %102
  %104 = icmp eq i32 %103, 33554449
  br i1 %104, label %105, label %106

105:                                              ; preds = %100
  br label %120

106:                                              ; preds = %100
  %107 = load i32, ptr %18, align 4, !tbaa !3
  %108 = and i32 %107, 255
  %109 = or i32 33554432, %108
  %110 = icmp eq i32 %109, 33554450
  br i1 %110, label %111, label %112

111:                                              ; preds = %106
  br label %118

112:                                              ; preds = %106
  %113 = load i32, ptr %18, align 4, !tbaa !3
  %114 = and i32 %113, 255
  %115 = or i32 33554432, %114
  %116 = icmp eq i32 %115, 33554451
  %117 = select i1 %116, i32 64, i32 0
  br label %118

118:                                              ; preds = %112, %111
  %119 = phi i32 [ 48, %111 ], [ %117, %112 ]
  br label %120

120:                                              ; preds = %118, %105
  %121 = phi i32 [ 32, %105 ], [ %119, %118 ]
  br label %122

122:                                              ; preds = %120, %99
  %123 = phi i32 [ 28, %99 ], [ %121, %120 ]
  br label %124

124:                                              ; preds = %122, %93
  %125 = phi i32 [ 32, %93 ], [ %123, %122 ]
  br label %126

126:                                              ; preds = %124, %87
  %127 = phi i32 [ 28, %87 ], [ %125, %124 ]
  br label %128

128:                                              ; preds = %126, %81
  %129 = phi i32 [ 64, %81 ], [ %127, %126 ]
  br label %130

130:                                              ; preds = %128, %75
  %131 = phi i32 [ 48, %75 ], [ %129, %128 ]
  br label %132

132:                                              ; preds = %130, %69
  %133 = phi i32 [ 32, %69 ], [ %131, %130 ]
  br label %134

134:                                              ; preds = %132, %63
  %135 = phi i32 [ 28, %63 ], [ %133, %132 ]
  br label %136

136:                                              ; preds = %134, %57
  %137 = phi i32 [ 20, %57 ], [ %135, %134 ]
  br label %138

138:                                              ; preds = %136, %51
  %139 = phi i32 [ 20, %51 ], [ %137, %136 ]
  br label %140

140:                                              ; preds = %138, %45
  %141 = phi i32 [ 16, %45 ], [ %139, %138 ]
  %142 = zext i32 %141 to i64
  store i64 %142, ptr %19, align 8, !tbaa !10
  %143 = load ptr, ptr %6, align 8, !tbaa !21
  call void (ptr, i32, ptr, i32, ptr, ...) @mbedtls_debug_print_msg(ptr noundef %143, i32 noundef 2, ptr noundef @.str, i32 noundef 794, ptr noundef @.str.1)
  %144 = load i32, ptr %10, align 4, !tbaa !3
  %145 = icmp eq i32 %144, 0
  br i1 %145, label %146, label %150

146:                                              ; preds = %140
  %147 = load ptr, ptr %16, align 8, !tbaa !20
  %148 = getelementptr inbounds nuw %struct.mbedtls_ssl_tls13_handshake_secrets, ptr %147, i32 0, i32 0
  %149 = getelementptr inbounds [64 x i8], ptr %148, i64 0, i64 0
  store ptr %149, ptr %14, align 8, !tbaa !7
  store i64 64, ptr %15, align 8, !tbaa !10
  br label %154

150:                                              ; preds = %140
  %151 = load ptr, ptr %16, align 8, !tbaa !20
  %152 = getelementptr inbounds nuw %struct.mbedtls_ssl_tls13_handshake_secrets, ptr %151, i32 0, i32 1
  %153 = getelementptr inbounds [64 x i8], ptr %152, i64 0, i64 0
  store ptr %153, ptr %14, align 8, !tbaa !7
  store i64 64, ptr %15, align 8, !tbaa !10
  br label %154

154:                                              ; preds = %150, %146
  %155 = load i64, ptr %8, align 8, !tbaa !10
  %156 = load i64, ptr %19, align 8, !tbaa !10
  %157 = icmp ult i64 %155, %156
  br i1 %157, label %158, label %159

158:                                              ; preds = %154
  store i32 -27136, ptr %11, align 4, !tbaa !3
  br label %187

159:                                              ; preds = %154
  %160 = load ptr, ptr %6, align 8, !tbaa !21
  %161 = load i32, ptr %17, align 4, !tbaa !3
  %162 = getelementptr inbounds [64 x i8], ptr %12, i64 0, i64 0
  %163 = call i32 @mbedtls_ssl_get_handshake_transcript(ptr noundef %160, i32 noundef %161, ptr noundef %162, i64 noundef 64, ptr noundef %13)
  store i32 %163, ptr %11, align 4, !tbaa !3
  %164 = load i32, ptr %11, align 4, !tbaa !3
  %165 = icmp ne i32 %164, 0
  br i1 %165, label %166, label %169

166:                                              ; preds = %159
  %167 = load ptr, ptr %6, align 8, !tbaa !21
  %168 = load i32, ptr %11, align 4, !tbaa !3
  call void @mbedtls_debug_print_ret(ptr noundef %167, i32 noundef 1, ptr noundef @.str, i32 noundef 813, ptr noundef @.str.2, i32 noundef %168)
  br label %187

169:                                              ; preds = %159
  %170 = load ptr, ptr %6, align 8, !tbaa !21
  %171 = getelementptr inbounds [64 x i8], ptr %12, i64 0, i64 0
  %172 = load i64, ptr %13, align 8, !tbaa !10
  call void @mbedtls_debug_print_buf(ptr noundef %170, i32 noundef 4, ptr noundef @.str, i32 noundef 816, ptr noundef @.str.3, ptr noundef %171, i64 noundef %172)
  %173 = load i32, ptr %18, align 4, !tbaa !3
  %174 = load ptr, ptr %14, align 8, !tbaa !7
  %175 = getelementptr inbounds [64 x i8], ptr %12, i64 0, i64 0
  %176 = load ptr, ptr %7, align 8, !tbaa !7
  %177 = load ptr, ptr %9, align 8, !tbaa !12
  %178 = call i32 @ssl_tls13_calc_finished_core(i32 noundef %173, ptr noundef %174, ptr noundef %175, ptr noundef %176, ptr noundef %177)
  store i32 %178, ptr %11, align 4, !tbaa !3
  %179 = load i32, ptr %11, align 4, !tbaa !3
  %180 = icmp ne i32 %179, 0
  br i1 %180, label %181, label %182

181:                                              ; preds = %169
  br label %187

182:                                              ; preds = %169
  %183 = load ptr, ptr %6, align 8, !tbaa !21
  %184 = load ptr, ptr %7, align 8, !tbaa !7
  %185 = load i64, ptr %19, align 8, !tbaa !10
  call void @mbedtls_debug_print_buf(ptr noundef %183, i32 noundef 3, ptr noundef @.str, i32 noundef 824, ptr noundef @.str.4, ptr noundef %184, i64 noundef %185)
  %186 = load ptr, ptr %6, align 8, !tbaa !21
  call void (ptr, i32, ptr, i32, ptr, ...) @mbedtls_debug_print_msg(ptr noundef %186, i32 noundef 2, ptr noundef @.str, i32 noundef 825, ptr noundef @.str.5)
  br label %187

187:                                              ; preds = %182, %181, %166, %158
  %188 = load ptr, ptr %14, align 8, !tbaa !7
  %189 = load i64, ptr %15, align 8, !tbaa !10
  call void @mbedtls_platform_zeroize(ptr noundef %188, i64 noundef %189)
  %190 = getelementptr inbounds [64 x i8], ptr %12, i64 0, i64 0
  call void @mbedtls_platform_zeroize(ptr noundef %190, i64 noundef 64)
  %191 = load i32, ptr %11, align 4, !tbaa !3
  call void @llvm.lifetime.end.p0(i64 8, ptr %19) #8
  call void @llvm.lifetime.end.p0(i64 4, ptr %18) #8
  call void @llvm.lifetime.end.p0(i64 4, ptr %17) #8
  call void @llvm.lifetime.end.p0(i64 8, ptr %16) #8
  call void @llvm.lifetime.end.p0(i64 8, ptr %15) #8
  call void @llvm.lifetime.end.p0(i64 8, ptr %14) #8
  call void @llvm.lifetime.end.p0(i64 8, ptr %13) #8
  call void @llvm.lifetime.end.p0(i64 64, ptr %12) #8
  call void @llvm.lifetime.end.p0(i64 4, ptr %11) #8
  ret i32 %191
}