; Function Attrs: nounwind uwtable
define hidden i32 @mbedtls_ssl_tls13_calculate_verify_data(ptr noundef %0, ptr noundef %1, i64 noundef %2, ptr noundef %3, i32 noundef %4) local_unnamed_addr #0 {
  %6 = alloca [64 x i8], align 16
  %7 = alloca i64, align 8
  call void @llvm.lifetime.start.p0(i64 64, ptr nonnull %6) #8
  call void @llvm.lifetime.start.p0(i64 8, ptr nonnull %7) #8
  %8 = getelementptr inbounds nuw i8, ptr %0, i64 112
  %9 = load ptr, ptr %8, align 8, !tbaa !11
  %10 = getelementptr inbounds nuw i8, ptr %9, i64 16
  %11 = load ptr, ptr %10, align 8, !tbaa !21
  %12 = getelementptr inbounds nuw i8, ptr %11, i64 17
  %13 = load i8, ptr %12, align 1, !tbaa !38
  %14 = zext i8 %13 to i32
  %15 = or disjoint i32 %14, 33554432
  %switch.tableidx = add nsw i32 %14, -3
  %16 = icmp ult i32 %switch.tableidx, 16
  br i1 %16, label %switch.hole_check, label %17

17:                                               ; preds = %switch.hole_check, %5
  %18 = icmp eq i8 %13, 19
  %19 = select i1 %18, i64 64, i64 0
  br label %21

switch.hole_check:                                ; preds = %5
  %switch.maskindex = trunc nuw nsw i32 %switch.tableidx to i16
  %switch.shifted = lshr i16 -6169, %switch.maskindex
  %switch.lobit = trunc i16 %switch.shifted to i1
  br i1 %switch.lobit, label %switch.lookup, label %17

switch.lookup:                                    ; preds = %switch.hole_check
  %20 = zext nneg i32 %switch.tableidx to i64
  %switch.gep = getelementptr inbounds nuw [16 x i64], ptr @switch.table.mbedtls_ssl_tls13_compute_application_transform.13, i64 0, i64 %20
  %switch.load = load i64, ptr %switch.gep, align 8
  br label %21

21:                                               ; preds = %switch.lookup, %17
  %22 = phi i64 [ %19, %17 ], [ %switch.load, %switch.lookup ]
  tail call void (ptr, i32, ptr, i32, ptr, ...) @mbedtls_debug_print_msg(ptr noundef nonnull %0, i32 noundef 2, ptr noundef nonnull @.str, i32 noundef 794, ptr noundef nonnull @.str.1) #8
  %23 = icmp eq i32 %4, 0
  %.039.v = select i1 %23, i64 3368, i64 3432
  %.039 = getelementptr inbounds nuw i8, ptr %9, i64 %.039.v
  %24 = icmp ult i64 %2, %22
  br i1 %24, label %32, label %25

25:                                               ; preds = %21
  %26 = call i32 @mbedtls_ssl_get_handshake_transcript(ptr noundef nonnull %0, i32 noundef %14, ptr noundef nonnull %6, i64 noundef 64, ptr noundef nonnull %7) #8
  %.not = icmp eq i32 %26, 0
  br i1 %.not, label %28, label %27

27:                                               ; preds = %25
  call void @mbedtls_debug_print_ret(ptr noundef nonnull %0, i32 noundef 1, ptr noundef nonnull @.str, i32 noundef 813, ptr noundef nonnull @.str.2, i32 noundef %26) #8
  br label %32

28:                                               ; preds = %25
  %29 = load i64, ptr %7, align 8, !tbaa !10
  call void @mbedtls_debug_print_buf(ptr noundef nonnull %0, i32 noundef 4, ptr noundef nonnull @.str, i32 noundef 816, ptr noundef nonnull @.str.3, ptr noundef nonnull %6, i64 noundef %29) #8
  %30 = call fastcc i32 @ssl_tls13_calc_finished_core(i32 noundef %15, ptr noundef nonnull %.039, ptr noundef nonnull %6, ptr noundef %1, ptr noundef %3)
  %.not45 = icmp eq i32 %30, 0
  br i1 %.not45, label %31, label %32

31:                                               ; preds = %28
  call void @mbedtls_debug_print_buf(ptr noundef nonnull %0, i32 noundef 3, ptr noundef nonnull @.str, i32 noundef 824, ptr noundef nonnull @.str.4, ptr noundef %1, i64 noundef %22) #8
  call void (ptr, i32, ptr, i32, ptr, ...) @mbedtls_debug_print_msg(ptr noundef nonnull %0, i32 noundef 2, ptr noundef nonnull @.str, i32 noundef 825, ptr noundef nonnull @.str.5) #8
  br label %32

32:                                               ; preds = %21, %28, %31, %27
  %.0 = phi i32 [ %26, %27 ], [ %30, %28 ], [ 0, %31 ], [ -27136, %21 ]
  call void @mbedtls_platform_zeroize(ptr noundef nonnull %.039, i64 noundef 64) #8
  call void @mbedtls_platform_zeroize(ptr noundef nonnull %6, i64 noundef 64) #8
  call void @llvm.lifetime.end.p0(i64 8, ptr nonnull %7) #8
  call void @llvm.lifetime.end.p0(i64 64, ptr nonnull %6) #8
  ret i32 %.0
}